---
archs:                 [ armv7, armv7s, arm64 ]
platform:              ios-simulator
install-name:          "libMTLInterpose.dylib"
current-version:       201.8
compatibility-version: 1.1
exports:
  - archs:                [ armv7, armv7s, arm64 ]
    symbols:              [ _DYGetMTLDeviceInfo, _DYHarvesterAddTexturePlane,
                            _DYHarvesterGetData, _DYHarvesterGetDataSize,
                            _DYHarvesterGetMetadata, _DYHarvesterGetMetadataSize,
                            _DYHarvesterGetOffset,
                            _DYHarvesterGetTextureMetadataRequiredSize,
                            _DYHarvesterGetTexturePlane,
                            _DYHarvesterGetTexturePlaneCount,
                            _DYHarvesterInitMetadata,
                            _DYIsCaptureByImplicitVRFrameBoundaryEnabled,
                            _DYIsCaptureTriggeredByCommandQueueInsertDebugCaptureBoundary,
                            _DYIsCommandBufferCreatedDuringCurrentCapture,
                            _DYMTLHarvestDevices, _DYMTLIsUICapture,
                            _DYMTLWrapDeviceWithDebugLayer,
                            _DYMTLWrapDeviceWithToolsLayer,
                            _EnumerateActiveMTLDevices,
                            _EnumerateMTLCommandQueueInfos,
                            _EnumerateMTLDeviceProfiles, _EnumerateMTLDevices,
                            __Z24DYMTLOpenVRInterposeInitv,
                            __Z33DYMTLCollectPlatformProfilingDataP19NSMutableDictionary,
                            __ZN8GPUTools3MTL19GetMTLVREyeAsStringEyb,
                            __ZN8GPUTools3MTL21GetMTLLogicOpAsStringEyb,
                            __ZN8GPUTools3MTL21GetMTLWindingAsStringEyb,
                            __ZN8GPUTools3MTL22GetMTLCullModeAsStringEyb,
                            __ZN8GPUTools3MTL22GetMTLDataTypeAsStringEyb,
                            __ZN8GPUTools3MTL22GetMTLHeapTypeAsStringEyb,
                            __ZN8GPUTools3MTL22GetMTLQosLevelAsStringEyb,
                            __ZN8GPUTools3MTL23GetMTLGPUFamilyAsStringEyb,
                            __ZN8GPUTools3MTL23GetMTLIndexTypeAsStringEyb,
                            __ZN8GPUTools3MTL23GetMTLPatchTypeAsStringEyb,
                            __ZN8GPUTools3MTL24GetMTLBlitOptionAsStringEyb,
                            __ZN8GPUTools3MTL24GetMTLFeatureSetAsStringEyb,
                            __ZN8GPUTools3MTL24GetMTLLoadActionAsStringEyb,
                            __ZN8GPUTools3MTL24GetMTLMutabilityAsStringEyb,
                            __ZN8GPUTools3MTL24Get_MTLMachOTypeAsStringEyb,
                            __ZN8GPUTools3MTL25GetMTLBlendFactorAsStringEyb,
                            __ZN8GPUTools3MTL25GetMTLGPUPriorityAsStringEyb,
                            __ZN8GPUTools3MTL25GetMTLLibraryTypeAsStringEyb,
                            __ZN8GPUTools3MTL25GetMTLMessageTypeAsStringEyb,
                            __ZN8GPUTools3MTL25GetMTLPixelFormatAsStringEyb,
                            __ZN8GPUTools3MTL25GetMTLStorageModeAsStringEyb,
                            __ZN8GPUTools3MTL25GetMTLStoreActionAsStringEyb,
                            __ZN8GPUTools3MTL25GetMTLTextureTypeAsStringEyb,
                            __ZN8GPUTools3MTL26GetMTLArgumentTypeAsStringEyb,
                            __ZN8GPUTools3MTL26GetMTLBarrierScopeAsStringEyb,
                            __ZN8GPUTools3MTL26GetMTLCPUCacheModeAsStringEyb,
                            __ZN8GPUTools3MTL26GetMTLCaptureErrorAsStringEyb,
                            __ZN8GPUTools3MTL26GetMTLCompilerFlagAsStringEyb,
                            __ZN8GPUTools3MTL26GetMTLDispatchTypeAsStringEyb,
                            __ZN8GPUTools3MTL26GetMTLFunctionTypeAsStringEyb,
                            __ZN8GPUTools3MTL26GetMTLGPUOperationAsStringEyb,
                            __ZN8GPUTools3MTL26GetMTLLibraryErrorAsStringEyb,
                            __ZN8GPUTools3MTL26GetMTLRenderStagesAsStringEyb,
                            __ZN8GPUTools3MTL26GetMTLRoundingModeAsStringEyb,
                            __ZN8GPUTools3MTL26GetMTLStepFunctionAsStringEyb,
                            __ZN8GPUTools3MTL26GetMTLSyncDispatchAsStringEyb,
                            __ZN8GPUTools3MTL26GetMTLTextureUsageAsStringEyb,
                            __ZN8GPUTools3MTL26GetMTLVertexFormatAsStringEyb,
                            __ZN8GPUTools3MTL27GetMTLCompilerErrorAsStringEyb,
                            __ZN8GPUTools3MTL27GetMTLDepthClipModeAsStringEyb,
                            __ZN8GPUTools3MTL27GetMTLPrimitiveTypeAsStringEyb,
                            __ZN8GPUTools3MTL27GetMTLResourceUsageAsStringEyb,
                            __ZN8GPUTools3MTL27GetMTLVRSubmitFlagsAsStringEyb,
                            __ZN8GPUTools3MTL28GetMTLArgumentAccessAsStringEyb,
                            __ZN8GPUTools3MTL28GetMTLBlendOperationAsStringEyb,
                            __ZN8GPUTools3MTL28GetMTLColorWriteMaskAsStringEyb,
                            __ZN8GPUTools3MTL28GetMTLDeviceLocationAsStringEyb,
                            __ZN8GPUTools3MTL28GetMTLLogicOperationAsStringEyb,
                            __ZN8GPUTools3MTL28GetMTLPipelineOptionAsStringEyb,
                            __ZN8GPUTools3MTL28GetMTLPurgeableStateAsStringEyb,
                            __ZN8GPUTools3MTL28GetMTLSourceLanguageAsStringEyb,
                            __ZN8GPUTools3MTL28GetMTLSparsePageSizeAsStringEyb,
                            __ZN8GPUTools3MTL28GetMTLTextureSwizzleAsStringEyb,
                            __ZN8GPUTools3MTL28GetMTLValidationCodeAsStringEyb,
                            __ZN8GPUTools3MTL29GetMTLAttributeFormatAsStringEyb,
                            __ZN8GPUTools3MTL29GetMTLCompareFunctionAsStringEyb,
                            __ZN8GPUTools3MTL29GetMTLComputeFPConfigAsStringEyb,
                            __ZN8GPUTools3MTL29GetMTLDevicePartitionAsStringEyb,
                            __ZN8GPUTools3MTL29GetMTLGPUAddressSpaceAsStringEyb,
                            __ZN8GPUTools3MTL29GetMTLLanguageVersionAsStringEyb,
                            __ZN8GPUTools3MTL29GetMTLResourceOptionsAsStringEyb,
                            __ZN8GPUTools3MTL29GetMTLTextureRotationAsStringEyb,
                            __ZN8GPUTools3MTL30GetMTLCompilerTestModeAsStringEyb,
                            __ZN8GPUTools3MTL30GetMTLPixelFormatFlagsAsStringEyb,
                            __ZN8GPUTools3MTL30GetMTLSamplerMipFilterAsStringEyb,
                            __ZN8GPUTools3MTL30GetMTLStencilOperationAsStringEyb,
                            __ZN8GPUTools3MTL30GetMTLTriangleFillModeAsStringEyb,
                            __ZN8GPUTools3MTL32GetMTLBinaryArchiveErrorAsStringEyb,
                            __ZN8GPUTools3MTL32GetMTLCaptureDestinationAsStringEyb,
                            __ZN8GPUTools3MTL32GetMTLCommandBufferErrorAsStringEyb,
                            __ZN8GPUTools3MTL32GetMTLCommandEncoderTypeAsStringEyb,
                            __ZN8GPUTools3MTL32GetMTLHazardTrackingModeAsStringEyb,
                            __ZN8GPUTools3MTL32GetMTLSamplerAddressModeAsStringEyb,
                            __ZN8GPUTools3MTL32GetMTLSamplerBorderColorAsStringEyb,
                            __ZN8GPUTools3MTL32GetMTLSparseTexturesTierAsStringEyb,
                            __ZN8GPUTools3MTL32GetMTLStoreActionOptionsAsStringEyb,
                            __ZN8GPUTools3MTL32GetMTLUnmappedDepthValueAsStringEyb,
                            __ZN8GPUTools3MTL32GetMTLVertexStepFunctionAsStringEyb,
                            __ZN8GPUTools3MTL33GetMTLArgumentBuffersTierAsStringEyb,
                            __ZN8GPUTools3MTL33GetMTLBuiltInArgumentTypeAsStringEyb,
                            __ZN8GPUTools3MTL33GetMTLCommandBufferStatusAsStringEyb,
                            __ZN8GPUTools3MTL33GetMTLDynamicLibraryErrorAsStringEyb,
                            __ZN8GPUTools3MTL33GetMTLGLFragmentInputTypeAsStringEyb,
                            __ZN8GPUTools3MTL33GetMTLIndirectCommandTypeAsStringEyb,
                            __ZN8GPUTools3MTL33GetMTLPrecompiledDataTypeAsStringEyb,
                            __ZN8GPUTools3MTL33GetMTLProvokingVertexModeAsStringEyb,
                            __ZN8GPUTools3MTL33GetMTLSamplerMinMagFilterAsStringEyb,
                            __ZN8GPUTools3MTL33GetMTLTextureSwizzleShiftAsStringEyb,
                            __ZN8GPUTools3MTL34GetMTLCounterSamplingPointAsStringEyb,
                            __ZN8GPUTools3MTL34GetMTLDeviceFeatureProfileAsStringEyb,
                            __ZN8GPUTools3MTL34GetMTLReadWriteTextureTierAsStringEyb,
                            __ZN8GPUTools3MTL34GetMTLSamplerReductionModeAsStringEyb,
                            __ZN8GPUTools3MTL34GetMTLVisibilityResultModeAsStringEyb,
                            __ZN8GPUTools3MTL36GetMTLArgumentImageBlockKindAsStringEyb,
                            __ZN8GPUTools3MTL36GetMTLPrimitiveTopologyClassAsStringEyb,
                            __ZN8GPUTools3MTL36GetMTLResourceGroupCacheHintAsStringEyb,
                            __ZN8GPUTools3MTL36GetMTLTextureCompressionModeAsStringEyb,
                            __ZN8GPUTools3MTL36GetMTLTransformFeedbackStateAsStringEyb,
                            __ZN8GPUTools3MTL37GetMTLVertexAmplificationModeAsStringEyb,
                            __ZN8GPUTools3MTL38GetMTLCommandBufferErrorOptionAsStringEyb,
                            __ZN8GPUTools3MTL38GetMTLCommandEncoderErrorStateAsStringEyb,
                            __ZN8GPUTools3MTL38GetMTLCounterSampleBufferErrorAsStringEyb,
                            __ZN8GPUTools3MTL38GetMTLSparseTextureMappingModeAsStringEyb,
                            __ZN8GPUTools3MTL38GetMTLTessellationFactorFormatAsStringEyb,
                            __ZN8GPUTools3MTL39GetMTLCommandDataCorruptionModeAsStringEyb,
                            __ZN8GPUTools3MTL39GetMTLTessellationPartitionModeAsStringEyb,
                            __ZN8GPUTools3MTL40GetMTLAccelerationStructureUsageAsStringEyb,
                            __ZN8GPUTools3MTL40GetMTLTextureCompressionFeedbackAsStringEyb,
                            __ZN8GPUTools3MTL41GetMTLBinaryArchiveStorageOptionsAsStringEyb,
                            __ZN8GPUTools3MTL41GetMTLIndirectArgumentBuffersTierAsStringEyb,
                            __ZN8GPUTools3MTL41GetMTLSamplerReductionModeSupportAsStringEyb,
                            __ZN8GPUTools3MTL41Get_MTLArgumentBufferPatchingTypeAsStringEyb,
                            __ZN8GPUTools3MTL41Get_MTLArgumentBufferResourceTypeAsStringEyb,
                            __ZN8GPUTools3MTL43GetMTLMultisampleDepthResolveFilterAsStringEyb,
                            __ZN8GPUTools3MTL44GetMTLTessellationFactorStepFunctionAsStringEyb,
                            __ZN8GPUTools3MTL45GetMTLImageFilterFunctionArgumentTypeAsStringEyb,
                            __ZN8GPUTools3MTL45GetMTLMultisampleStencilResolveFilterAsStringEyb,
                            __ZN8GPUTools3MTL45GetMTLRenderCommandEncoderSplitReasonAsStringEyb,
                            __ZN8GPUTools3MTL46GetMTLSparseTextureRegionAlignmentModeAsStringEyb,
                            __ZN8GPUTools3MTL47GetMTLBinaryArchiveSerializationOptionsAsStringEyb,
                            __ZN8GPUTools3MTL47GetMTLTessellationControlPointIndexTypeAsStringEyb,
                            __ZN8GPUTools3MTL48GetMTLAccelerationStructureGeometryFlagsAsStringEyb,
                            __ZN8GPUTools3MTL48GetMTLAccelerationStructureInstanceFlagsAsStringEyb,
                            __ZN8GPUTools3MTL48GetMTLDynamicLibrarySerializationOptionsAsStringEyb,
                            __ZN8GPUTools3MTL5Utils32DYMTLTranslateGPUAddressToBufferERKNSt3__16vectorINS1_21DYMTLBufferGPUAddressENS2_9allocatorIS4_EEEEy,
                            __ZN8GPUTools3MTL5Utils33DYMTLCreateIndirectCommandEncoderEPKNS1_36DYMTLIndirectCommandBufferDescriptorE,
                            __ZN8GPUTools3MTL5Utils49DYMTLConvertIndirectCommandBufferDataToFBufStreamEPKNS1_36DYMTLIndirectCommandBufferDescriptorEP6NSDatay8_NSRangePU54objcproto43DYMTLIndirectCommandBufferTranslateDelegate11objc_object,
                            __ZNK8GPUTools3MTL5Utils27DYMTLIndirectCommandEncoder11commandTypeEPKc,
                            __ZNK8GPUTools3MTL5Utils27DYMTLIndirectCommandEncoder11drawPatchesEPc,
                            __ZNK8GPUTools3MTL5Utils27DYMTLIndirectCommandEncoder13drawArgumentsEPKc,
                            __ZNK8GPUTools3MTL5Utils27DYMTLIndirectCommandEncoder14drawPrimitivesEPc,
                            __ZNK8GPUTools3MTL5Utils27DYMTLIndirectCommandEncoder14setCommandTypeEPcy,
                            __ZNK8GPUTools3MTL5Utils27DYMTLIndirectCommandEncoder16getKernelBuffersEPKc,
                            __ZNK8GPUTools3MTL5Utils27DYMTLIndirectCommandEncoder16getVertexBuffersEPKc,
                            __ZNK8GPUTools3MTL5Utils27DYMTLIndirectCommandEncoder16setKernelBuffersEPc,
                            __ZNK8GPUTools3MTL5Utils27DYMTLIndirectCommandEncoder16setVertexBuffersEPc,
                            __ZNK8GPUTools3MTL5Utils27DYMTLIndirectCommandEncoder18drawIndexedPatchesEPc,
                            __ZNK8GPUTools3MTL5Utils27DYMTLIndirectCommandEncoder18getFragmentBuffersEPKc,
                            __ZNK8GPUTools3MTL5Utils27DYMTLIndirectCommandEncoder18setFragmentBuffersEPc,
                            __ZNK8GPUTools3MTL5Utils27DYMTLIndirectCommandEncoder20drawIndexedArgumentsEPKc,
                            __ZNK8GPUTools3MTL5Utils27DYMTLIndirectCommandEncoder20drawPatchesArgumentsEPKc,
                            __ZNK8GPUTools3MTL5Utils27DYMTLIndirectCommandEncoder21drawIndexedPrimitivesEPc,
                            __ZNK8GPUTools3MTL5Utils27DYMTLIndirectCommandEncoder22dispatchThreadsPerTileEPc,
                            __ZNK8GPUTools3MTL5Utils27DYMTLIndirectCommandEncoder25concurrentDispatchThreadsEPc,
                            __ZNK8GPUTools3MTL5Utils27DYMTLIndirectCommandEncoder25indirectDispatchArgumentsEPKc,
                            __ZNK8GPUTools3MTL5Utils27DYMTLIndirectCommandEncoder26getThreadgroupMemoryLengthEPKc,
                            __ZNK8GPUTools3MTL5Utils27DYMTLIndirectCommandEncoder26setThreadgroupMemoryLengthEPc,
                            __ZNK8GPUTools3MTL5Utils27DYMTLIndirectCommandEncoder27drawIndexedPatchesArgumentsEPKc,
                            __ZNK8GPUTools3MTL5Utils27DYMTLIndirectCommandEncoder28setIndirectDispatchArgumentsEPc,
                            __ZNK8GPUTools3MTL5Utils27DYMTLIndirectCommandEncoder30concurrentDispatchThreadgroupsEPc,
                            __ZNK8GPUTools3MTL5Utils27DYMTLIndirectCommandEncoder30getTessellationFactorArgumentsEPKc,
                            __ZNK8GPUTools3MTL5Utils27DYMTLIndirectCommandEncoder30setTessellationFactorArgumentsEPc,
                            __ZNK8GPUTools3MTL5Utils27DYMTLIndirectCommandEncoder31dispatchThreadsPerTileArgumentsEPKc,
                            __ZNK8GPUTools3MTL5Utils27DYMTLIndirectCommandEncoder32getPipelineStateUniqueIdentifierEPKc,
                            __ZNK8GPUTools3MTL5Utils27DYMTLIndirectCommandEncoder32setPipelineStateUniqueIdentifierEPcy,
                            __ZNK8GPUTools3MTL5Utils27DYMTLIndirectCommandEncoder34concurrentDispatchThreadsArgumentsEPKc,
                            __ZNK8GPUTools3MTL5Utils27DYMTLIndirectCommandEncoder39concurrentDispatchThreadgroupsArgumentsEPKc,
                            _disable_buffer_swaps, _gDYMTLObjectRemappingBlock,
                            _gDYMTLObjectUnmappingBlock,
                            _get_all_per_function_profiling_data,
                            _get_graphics_timing, _get_profiling_data,
                            _reset_graphics_timing ]
    objc-classes:         [ _DYMTLCaptureDescriptor, _DYMTLCaptureState,
                            _DYMTLDesktopAppClient, _DYMTLGuestAppClient,
                            _DYMTLMobileAppClient, _DYMTLResourceUpdater,
                            _DYMTLToolsPointerArray ]
    objc-ivars:           [ _DYMTLCaptureDescriptor._captureCommandQueue,
                            _DYMTLCaptureDescriptor._captureDevice,
                            _DYMTLCaptureDescriptor._captureScope,
                            _DYMTLCaptureState._captureDevice,
                            _DYMTLCaptureState._captureScopeActive,
                            _DYMTLCaptureState._capturedCommandBuffers,
                            _DYMTLGuestAppClient._includeBacktraceInFbufs,
                            _DYMTLGuestAppClient._lastCapturableCommandQueueUsed,
                            _DYMTLToolsPointerArray._lock,
                            _DYMTLToolsPointerArray._pointerSet ]
...
